target datalayout = "e-m:e-p270:32:32-p271:32:32-p272:64:64-i64:64-i128:128-f80:128-n8:16:32:64-S128"
target triple = "x86_64-pc-linux-gnu"

%struct.cmac_ctx_st = type { %struct.evp_cipher_ctx_st, [16 x i8], [16 x i8], [16 x i8], i32 }
%struct.evp_cipher_ctx_st = type { ptr, ptr, ptr, i32, i32, i32, [16 x i8], [16 x i8], [32 x i8], i32, i32, i32, i32, [32 x i8] }

; Function Attrs: nounwind uwtable
define hidden i32 @CMAC_Final(ptr noundef %0, ptr noundef %1, ptr noundef %2) #0 {
  %4 = alloca i32, align 4
  %5 = alloca ptr, align 8
  %6 = alloca ptr, align 8
  %7 = alloca ptr, align 8
  %8 = alloca ptr, align 8
  %9 = alloca i32, align 4
  store ptr %0, ptr %5, align 8, !tbaa !17
  store ptr %1, ptr %6, align 8, !tbaa !6
  store ptr %2, ptr %7, align 8, !tbaa !27
  %10 = load ptr, ptr %7, align 8, !tbaa !27
  store i64 16, ptr %10, align 8, !tbaa !11
  %11 = load ptr, ptr %6, align 8, !tbaa !6
  %12 = icmp eq ptr %11, null
  br i1 %12, label %13, label %14

13:                                               ; preds = %3
  store i32 1, ptr %4, align 4
  br label %81

14:                                               ; preds = %3
  call void @llvm.lifetime.start.p0(i64 8, ptr %8) #7
  %15 = load ptr, ptr %5, align 8, !tbaa !17
  %16 = getelementptr inbounds nuw %struct.cmac_ctx_st, ptr %15, i32 0, i32 1
  %17 = getelementptr inbounds [16 x i8], ptr %16, i64 0, i64 0
  store ptr %17, ptr %8, align 8, !tbaa !6
  %18 = load ptr, ptr %5, align 8, !tbaa !17
  %19 = getelementptr inbounds nuw %struct.cmac_ctx_st, ptr %18, i32 0, i32 4
  %20 = load i32, ptr %19, align 8, !tbaa !22
  %21 = icmp ne i32 %20, 16
  br i1 %21, label %22, label %48

22:                                               ; preds = %14
  %23 = load ptr, ptr %5, align 8, !tbaa !17
  %24 = getelementptr inbounds nuw %struct.cmac_ctx_st, ptr %23, i32 0, i32 3
  %25 = load ptr, ptr %5, align 8, !tbaa !17
  %26 = getelementptr inbounds nuw %struct.cmac_ctx_st, ptr %25, i32 0, i32 4
  %27 = load i32, ptr %26, align 8, !tbaa !22
  %28 = zext i32 %27 to i64
  %29 = getelementptr inbounds nuw [16 x i8], ptr %24, i64 0, i64 %28
  store i8 -128, ptr %29, align 1, !tbaa !29
  %30 = load ptr, ptr %5, align 8, !tbaa !17
  %31 = getelementptr inbounds nuw %struct.cmac_ctx_st, ptr %30, i32 0, i32 3
  %32 = getelementptr inbounds [16 x i8], ptr %31, i64 0, i64 0
  %33 = load ptr, ptr %5, align 8, !tbaa !17
  %34 = getelementptr inbounds nuw %struct.cmac_ctx_st, ptr %33, i32 0, i32 4
  %35 = load i32, ptr %34, align 8, !tbaa !22
  %36 = zext i32 %35 to i64
  %37 = getelementptr inbounds nuw i8, ptr %32, i64 %36
  %38 = getelementptr inbounds i8, ptr %37, i64 1
  %39 = load ptr, ptr %5, align 8, !tbaa !17
  %40 = getelementptr inbounds nuw %struct.cmac_ctx_st, ptr %39, i32 0, i32 4
  %41 = load i32, ptr %40, align 8, !tbaa !22
  %42 = add i32 %41, 1
  %43 = sub i32 16, %42
  %44 = zext i32 %43 to i64
  call void @llvm.memset.p0.i64(ptr align 1 %38, i8 0, i64 %44, i1 false)
  %45 = load ptr, ptr %5, align 8, !tbaa !17
  %46 = getelementptr inbounds nuw %struct.cmac_ctx_st, ptr %45, i32 0, i32 2
  %47 = getelementptr inbounds [16 x i8], ptr %46, i64 0, i64 0
  store ptr %47, ptr %8, align 8, !tbaa !6
  br label %48

48:                                               ; preds = %22, %14
  call void @llvm.lifetime.start.p0(i64 4, ptr %9) #7
  store i32 0, ptr %9, align 4, !tbaa !15
  br label %49

49:                                               ; preds = %72, %48
  %50 = load i32, ptr %9, align 4, !tbaa !15
  %51 = icmp ult i32 %50, 16
  br i1 %51, label %52, label %75

52:                                               ; preds = %49
  %53 = load ptr, ptr %5, align 8, !tbaa !17
  %54 = getelementptr inbounds nuw %struct.cmac_ctx_st, ptr %53, i32 0, i32 3
  %55 = load i32, ptr %9, align 4, !tbaa !15
  %56 = zext i32 %55 to i64
  %57 = getelementptr inbounds nuw [16 x i8], ptr %54, i64 0, i64 %56
  %58 = load i8, ptr %57, align 1, !tbaa !29
  %59 = zext i8 %58 to i32
  %60 = load ptr, ptr %8, align 8, !tbaa !6
  %61 = load i32, ptr %9, align 4, !tbaa !15
  %62 = zext i32 %61 to i64
  %63 = getelementptr inbounds nuw i8, ptr %60, i64 %62
  %64 = load i8, ptr %63, align 1, !tbaa !29
  %65 = zext i8 %64 to i32
  %66 = xor i32 %59, %65
  %67 = trunc i32 %66 to i8
  %68 = load ptr, ptr %6, align 8, !tbaa !6
  %69 = load i32, ptr %9, align 4, !tbaa !15
  %70 = zext i32 %69 to i64
  %71 = getelementptr inbounds nuw i8, ptr %68, i64 %70
  store i8 %67, ptr %71, align 1, !tbaa !29
  br label %72

72:                                               ; preds = %52
  %73 = load i32, ptr %9, align 4, !tbaa !15
  %74 = add i32 %73, 1
  store i32 %74, ptr %9, align 4, !tbaa !15
  br label %49, !llvm.loop !30

75:                                               ; preds = %49
  %76 = load ptr, ptr %5, align 8, !tbaa !17
  %77 = getelementptr inbounds nuw %struct.cmac_ctx_st, ptr %76, i32 0, i32 0
  %78 = load ptr, ptr %6, align 8, !tbaa !6
  %79 = load ptr, ptr %6, align 8, !tbaa !6
  %80 = call i32 @EVP_Cipher(ptr noundef %77, ptr noundef %78, ptr noundef %79, i64 noundef 16)
  store i32 %80, ptr %4, align 4
  call void @llvm.lifetime.end.p0(i64 4, ptr %9) #7
  call void @llvm.lifetime.end.p0(i64 8, ptr %8) #7
  br label %81

81:                                               ; preds = %75, %13
  %82 = load i32, ptr %4, align 4
  ret i32 %82
}