; Function Attrs: nounwind uwtable
define hidden i32 @CMAC_Final(ptr noundef %0, ptr noundef %1, ptr noundef writeonly captures(none) initializes((0, 8)) %2) local_unnamed_addr #0 {
  store i64 16, ptr %2, align 8, !tbaa !19
  %4 = icmp eq ptr %1, null
  br i1 %4, label %31, label %5

5:                                                ; preds = %3
  %6 = getelementptr inbounds nuw i8, ptr %0, i64 200
  %7 = load i32, ptr %6, align 8, !tbaa !6
  %.not = icmp eq i32 %7, 16
  br i1 %.not, label %18, label %8

8:                                                ; preds = %5
  %9 = getelementptr inbounds nuw i8, ptr %0, i64 184
  %10 = zext i32 %7 to i64
  %11 = getelementptr inbounds nuw [16 x i8], ptr %9, i64 0, i64 %10
  store i8 -128, ptr %11, align 1, !tbaa !16
  %12 = load i32, ptr %6, align 8, !tbaa !6
  %13 = zext i32 %12 to i64
  %14 = getelementptr inbounds nuw i8, ptr %9, i64 %13
  %15 = getelementptr inbounds nuw i8, ptr %14, i64 1
  %16 = sub i32 15, %12
  %17 = zext i32 %16 to i64
  tail call void @llvm.memset.p0.i64(ptr nonnull align 1 %15, i8 0, i64 %17, i1 false)
  br label %18

18:                                               ; preds = %8, %5
  %19 = phi i64 [ 168, %8 ], [ 152, %5 ]
  %20 = getelementptr inbounds nuw i8, ptr %0, i64 %19
  %21 = getelementptr inbounds nuw i8, ptr %0, i64 184
  br label %22

22:                                               ; preds = %18, %22
  %indvars.iv = phi i64 [ 0, %18 ], [ %indvars.iv.next, %22 ]
  %23 = getelementptr inbounds nuw [16 x i8], ptr %21, i64 0, i64 %indvars.iv
  %24 = load i8, ptr %23, align 1, !tbaa !16
  %25 = getelementptr inbounds nuw i8, ptr %20, i64 %indvars.iv
  %26 = load i8, ptr %25, align 1, !tbaa !16
  %27 = xor i8 %26, %24
  %28 = getelementptr inbounds nuw i8, ptr %1, i64 %indvars.iv
  store i8 %27, ptr %28, align 1, !tbaa !16
  %indvars.iv.next = add nuw nsw i64 %indvars.iv, 1
  %exitcond.not = icmp eq i64 %indvars.iv.next, 16
  br i1 %exitcond.not, label %29, label %22, !llvm.loop !17

29:                                               ; preds = %22
  %30 = tail call i32 @EVP_Cipher(ptr noundef nonnull %0, ptr noundef nonnull %1, ptr noundef nonnull %1, i64 noundef 16) #8
  br label %31

31:                                               ; preds = %3, %29
  %.022 = phi i32 [ %30, %29 ], [ 1, %3 ]
  ret i32 %.022
}